target datalayout = "e-m:e-p270:32:32-p271:32:32-p272:64:64-i64:64-i128:128-f80:128-n8:16:32:64-S128"
target triple = "x86_64-pc-linux-gnu"

; Function Attrs: nounwind uwtable
define internal i32 @_ziplistEntryConvertAndValidate(ptr noundef %0, i32 noundef %1, ptr noundef %2) #0 {
  %4 = alloca i32, align 4
  %5 = alloca ptr, align 8
  %6 = alloca i32, align 4
  %7 = alloca ptr, align 8
  %8 = alloca ptr, align 8
  %9 = alloca i32, align 4
  %10 = alloca i64, align 8
  %11 = alloca ptr, align 8
  %12 = alloca i32, align 4
  store ptr %0, ptr %5, align 8, !tbaa !9
  store i32 %1, ptr %6, align 4, !tbaa !5
  store ptr %2, ptr %7, align 8, !tbaa !55
  call void @llvm.lifetime.start.p0(i64 8, ptr %8) #15
  call void @llvm.lifetime.start.p0(i64 4, ptr %9) #15
  call void @llvm.lifetime.start.p0(i64 8, ptr %10) #15
  call void @llvm.lifetime.start.p0(i64 8, ptr %11) #15
  %13 = load ptr, ptr %7, align 8, !tbaa !55
  store ptr %13, ptr %11, align 8, !tbaa !221
  %14 = load ptr, ptr %5, align 8, !tbaa !9
  %15 = call i32 @ziplistGet(ptr noundef %14, ptr noundef %8, ptr noundef %9, ptr noundef %10)
  %16 = icmp ne i32 %15, 0
  br i1 %16, label %18, label %17

17:                                               ; preds = %3
  store i32 0, ptr %4, align 4
  store i32 1, ptr %12, align 4
  br label %35

18:                                               ; preds = %3
  %19 = load ptr, ptr %8, align 8, !tbaa !9
  %20 = icmp ne ptr %19, null
  br i1 %20, label %21, label %28

21:                                               ; preds = %18
  %22 = load ptr, ptr %11, align 8, !tbaa !221
  %23 = load ptr, ptr %22, align 8, !tbaa !9
  %24 = load ptr, ptr %8, align 8, !tbaa !9
  %25 = load i32, ptr %9, align 4, !tbaa !5
  %26 = call ptr @lpAppend(ptr noundef %23, ptr noundef %24, i32 noundef %25)
  %27 = load ptr, ptr %11, align 8, !tbaa !221
  store ptr %26, ptr %27, align 8, !tbaa !9
  br label %34

28:                                               ; preds = %18
  %29 = load ptr, ptr %11, align 8, !tbaa !221
  %30 = load ptr, ptr %29, align 8, !tbaa !9
  %31 = load i64, ptr %10, align 8, !tbaa !68
  %32 = call ptr @lpAppendInteger(ptr noundef %30, i64 noundef %31)
  %33 = load ptr, ptr %11, align 8, !tbaa !221
  store ptr %32, ptr %33, align 8, !tbaa !9
  br label %34

34:                                               ; preds = %28, %21
  store i32 1, ptr %4, align 4
  store i32 1, ptr %12, align 4
  br label %35

35:                                               ; preds = %34, %17
  call void @llvm.lifetime.end.p0(i64 8, ptr %11) #15
  call void @llvm.lifetime.end.p0(i64 8, ptr %10) #15
  call void @llvm.lifetime.end.p0(i64 4, ptr %9) #15
  call void @llvm.lifetime.end.p0(i64 8, ptr %8) #15
  %36 = load i32, ptr %4, align 4
  ret i32 %36
}