; Function Attrs: nounwind uwtable
define internal range(i32 0, 2) i32 @_ziplistEntryConvertAndValidate(ptr noundef %0, i32 %1, ptr noundef captures(none) %2) #0 {
  %4 = alloca ptr, align 8
  %5 = alloca i32, align 4
  %6 = alloca i64, align 8
  call void @llvm.lifetime.start.p0(i64 8, ptr nonnull %4) #23
  call void @llvm.lifetime.start.p0(i64 4, ptr nonnull %5) #23
  call void @llvm.lifetime.start.p0(i64 8, ptr nonnull %6) #23
  %7 = call i32 @ziplistGet(ptr noundef %0, ptr noundef nonnull %4, ptr noundef nonnull %5, ptr noundef nonnull %6) #23
  %.not = icmp eq i32 %7, 0
  br i1 %.not, label %18, label %8

8:                                                ; preds = %3
  %9 = load ptr, ptr %4, align 8, !tbaa !52
  %.not7 = icmp eq ptr %9, null
  %10 = load ptr, ptr %2, align 8, !tbaa !52
  br i1 %.not7, label %14, label %11

11:                                               ; preds = %8
  %12 = load i32, ptr %5, align 4, !tbaa !51
  %13 = call ptr @lpAppend(ptr noundef %10, ptr noundef nonnull %9, i32 noundef %12) #23
  br label %17

14:                                               ; preds = %8
  %15 = load i64, ptr %6, align 8, !tbaa !62
  %16 = call ptr @lpAppendInteger(ptr noundef %10, i64 noundef %15) #23
  br label %17

17:                                               ; preds = %14, %11
  %storemerge = phi ptr [ %16, %14 ], [ %13, %11 ]
  store ptr %storemerge, ptr %2, align 8, !tbaa !52
  br label %18

18:                                               ; preds = %3, %17
  %.0 = phi i32 [ 1, %17 ], [ 0, %3 ]
  call void @llvm.lifetime.end.p0(i64 8, ptr nonnull %6) #23
  call void @llvm.lifetime.end.p0(i64 4, ptr nonnull %5) #23
  call void @llvm.lifetime.end.p0(i64 8, ptr nonnull %4) #23
  ret i32 %.0
}